0022F333   00FC             ADD AH,BH
0022F335   E8 820098AD      CALL ADBAF3BC
0022F33A   24 00            AND AL,0
0022F33C   8800             MOV BYTE PTR DS:[EAX],AL
0022F33E   0000             ADD BYTE PTR DS:[EAX],AL
0022F340   8B50 30          MOV EDX,DWORD PTR DS:[EAX+30]
0022F343   8B52 0C          MOV EDX,DWORD PTR DS:[EDX+C]
0022F346   8B52 01          MOV EDX,DWORD PTR DS:[EDX+1]
0022F349   0000             ADD BYTE PTR DS:[EAX],AL
0022F34B   0000             ADD BYTE PTR DS:[EAX],AL
0022F34D   022400           ADD AH,BYTE PTR DS:[EAX+EAX]
0022F350   98               CWDE
0022F351   AD               LODS DWORD PTR DS:[ESI]
0022F352   24 00            AND AL,0
0022F354   34 9B            XOR AL,9B
0022F356   94               XCHG EAX,ESP
0022F357  ^7C A0            JL SHORT 0022F2F9
0022F359   AF               SCAS DWORD PTR ES:[EDI]
0022F35A   24 00            AND AL,0
0022F35C   F8               CLC
0022F35D   0000             ADD BYTE PTR DS:[EAX],AL
0022F35F   00EE             ADD DH,CH
0022F361   FE               ???                                      ; Unknown command
0022F362   EE               OUT DX,AL                                ; I/O command
0022F363   FE00             INC BYTE PTR DS:[EAX]
0022F365   002400           ADD BYTE PTR DS:[EAX+EAX],AH
0022F368   20AE 24000000    AND BYTE PTR DS:[ESI+24],CH
0022F36E   0000             ADD BYTE PTR DS:[EAX],AL
0022F370   5C               POP ESP
0022F371   F4               HLT                                      ; Privileged command
0022F372   2200             AND AL,BYTE PTR DS:[EAX]
0022F374   0000             ADD BYTE PTR DS:[EAX],AL
0022F376   0000             ADD BYTE PTR DS:[EAX],AL
0022F378   5C               POP ESP
0022F379   F4               HLT                                      ; Privileged command
0022F37A   2200             AND AL,BYTE PTR DS:[EAX]
0022F37C   44               INC ESP
0022F37D   6A 92            PUSH -6E
0022F37F   7C 00            JL SHORT 0022F381
0022F381   002400           ADD BYTE PTR DS:[EAX+EAX],AH
0022F384   BE 6A927C20      MOV ESI,207C926A
0022F389   AE               SCAS BYTE PTR ES:[EDI]
0022F38A   24 00            AND AL,0
0022F38C   0000             ADD BYTE PTR DS:[EAX],AL
0022F38E   24 00            AND AL,0
0022F390   28AE 24000000    SUB BYTE PTR DS:[ESI+24],CH
0022F396   0000             ADD BYTE PTR DS:[EAX],AL
0022F398   0C F4            OR AL,0F4
0022F39A   2200             AND AL,BYTE PTR DS:[EAX]
0022F39C   18EE             SBB DH,CH
0022F39E   90               NOP
0022F39F   7C 01            JL SHORT 0022F3A2
0022F3A1   0000             ADD BYTE PTR DS:[EAX],AL
0022F3A3   0000             ADD BYTE PTR DS:[EAX],AL
0022F3A5   002400           ADD BYTE PTR DS:[EAX+EAX],AH
0022F3A8   A0 AD240000      MOV AL,BYTE PTR DS:[24AD]
0022F3AD   0073 00          ADD BYTE PTR DS:[EBX],DH
0022F3B0   DC31             FDIV QWORD PTR DS:[ECX]
0022F3B2   91               XCHG EAX,ECX
0022F3B3   7C 12            JL SHORT 0022F3C7
0022F3B5   3291 7C813291    XOR DL,BYTE PTR DS:[ECX+9132817C]
0022F3BB  ^7C 88            JL SHORT 0022F345
0022F3BD   3291 7C000000    XOR DL,BYTE PTR DS:[ECX+7C]
0022F3C3   0000             ADD BYTE PTR DS:[EAX],AL
0022F3C5   0000             ADD BYTE PTR DS:[EAX],AL
0022F3C7   000C00           ADD BYTE PTR DS:[EAX+EAX],CL
0022F3CA   0000             ADD BYTE PTR DS:[EAX],AL
0022F3CC  ^74 F6            JE SHORT 0022F3C4
0022F3CE   2200             AND AL,BYTE PTR DS:[EAX]
0022F3D0   C0F3 22          SAL BL,22                                ; Shift constant out of range 1..31
0022F3D3   00A8 63917C74    ADD BYTE PTR DS:[EAX+747C9163],CH
0022F3D9   F622             MUL BYTE PTR DS:[EDX]
0022F3DB   0018             ADD BYTE PTR DS:[EAX],BL
0022F3DD   EE               OUT DX,AL                                ; I/O command
0022F3DE   90               NOP
0022F3DF  ^7C 90            JL SHORT 0022F371
0022F3E1   3291 7C780424    XOR DL,BYTE PTR DS:[ECX+2404787C]
0022F3E7   0088 32917C98    ADD BYTE PTR DS:[EAX+987C9132],CL
0022F3ED   AD               LODS DWORD PTR DS:[ESI]
0022F3EE   24 00            AND AL,0
0022F3F0   70 01            JO SHORT 0022F3F3
0022F3F2   0000             ADD BYTE PTR DS:[EAX],AL
0022F3F4   0F00             ???                                      ; Unknown command
0022F3F6   F8               CLC
0022F3F7   06               PUSH ES
0022F3F8   15 63917C01      ADC EAX,17C9163
0022F3FD   0000             ADD BYTE PTR DS:[EAX],AL
0022F3FF   0078 04          ADD BYTE PTR DS:[EAX+4],BH
0022F402   24 00            AND AL,0
0022F404   0000             ADD BYTE PTR DS:[EAX],AL
0022F406   0000             ADD BYTE PTR DS:[EAX],AL
0022F408   FFFF             ???                                      ; Unknown command
0022F40A   D5 57            AAD 57
0022F40C   F4               HLT                                      ; Privileged command
0022F40D   F4               HLT                                      ; Privileged command
0022F40E   2200             AND AL,BYTE PTR DS:[EAX]
0022F410   18EE             SBB DH,CH
0022F412   90               NOP
0022F413   7C 00            JL SHORT 0022F415
0022F415   0000             ADD BYTE PTR DS:[EAX],AL
0022F417   00FF             ADD BH,BH
0022F419   FFFF             ???                                      ; Unknown command
0022F41B   FFD4             CALL ESP
0022F41D  ^E0 96            LOOPDNE SHORT 0022F3B5
0022F41F   0000             ADD BYTE PTR DS:[EAX],AL
0022F421   0000             ADD BYTE PTR DS:[EAX],AL
0022F423   0000             ADD BYTE PTR DS:[EAX],AL
0022F425   002400           ADD BYTE PTR DS:[EAX+EAX],AH
0022F428   BE 6A927C60      MOV ESI,607C926A
0022F42D   F4               HLT                                      ; Privileged command
0022F42E   2200             AND AL,BYTE PTR DS:[EAX]
0022F430  -E9 CD967C00      JMP 009F8B02
0022F435   002400           ADD BYTE PTR DS:[EAX+EAX],AH
0022F438   0000             ADD BYTE PTR DS:[EAX],AL
0022F43A   0000             ADD BYTE PTR DS:[EAX],AL
0022F43C   20AE 24000000    AND BYTE PTR DS:[ESI+24],CH
0022F442   24 00            AND AL,0
0022F444   28AE 24005CF4    SUB BYTE PTR DS:[ESI+F45C0024],CH
0022F44A   2200             AND AL,BYTE PTR DS:[EAX]
0022F44C   C0F4 22          SAL AH,22                                ; Shift constant out of range 1..31
0022F44F   0018             ADD BYTE PTR DS:[EAX],BL
0022F451   EE               OUT DX,AL                                ; I/O command
0022F452   90               NOP
0022F453   7C 00            JL SHORT 0022F455
0022F455   0000             ADD BYTE PTR DS:[EAX],AL
0022F457   0000             ADD BYTE PTR DS:[EAX],AL
0022F459   002400           ADD BYTE PTR DS:[EAX+EAX],AH
0022F45C   0000             ADD BYTE PTR DS:[EAX],AL
0022F45E   0000             ADD BYTE PTR DS:[EAX],AL
0022F460   D0F4             SAL AH,1
0022F462   2200             AND AL,BYTE PTR DS:[EAX]
0022F464   F0:E0 96         LOCK LOOPDNE SHORT 0022F3FD              ; LOCK prefix is not allowed
0022F467   7C 08            JL SHORT 0022F471
0022F469   06               PUSH ES
0022F46A   24 00            AND AL,0
0022F46C   D4 E0            AAM 0E0
0022F46E   96               XCHG EAX,ESI
0022F46F   7C 00            JL SHORT 0022F471
0022F471   002400           ADD BYTE PTR DS:[EAX+EAX],AH
0022F474   28AE 24006000    SUB BYTE PTR DS:[ESI+600024],CH
0022F47A   0040 90          ADD BYTE PTR DS:[EAX-70],AL
0022F47D   90               NOP
0022F47E   90               NOP
0022F47F   90               NOP
